target datalayout = "e-m:e-p270:32:32-p271:32:32-p272:64:64-i64:64-i128:128-f80:128-n8:16:32:64-S128"
target triple = "x86_64-pc-linux-gnu"

%struct.IDAMemRec = type { double, ptr, ptr, i32, double, double, ptr, i32, ptr, ptr, i32, ptr, ptr, i32, i32, double, double, ptr, i32, i32, i32, ptr, ptr, i32, ptr, ptr, ptr, i32, double, i32, i32, double, ptr, ptr, i32, ptr, ptr, i32, i32, i32, double, ptr, ptr, [6 x ptr], [6 x double], [6 x double], [6 x double], [6 x double], [6 x double], ptr, ptr, ptr, ptr, ptr, ptr, ptr, ptr, ptr, ptr, ptr, ptr, ptr, ptr, ptr, [6 x ptr], ptr, ptr, ptr, ptr, [6 x ptr], ptr, ptr, ptr, ptr, ptr, ptr, ptr, ptr, ptr, ptr, ptr, ptr, ptr, ptr, [6 x ptr], ptr, ptr, ptr, ptr, ptr, double, ptr, ptr, i32, i32, i32, i32, i32, i32, i32, double, double, double, i32, double, i32, i32, i32, i32, double, double, double, double, double, double, double, double, double, double, double, double, double, double, i32, i32, i32, i32, i32, i64, double, i32, i64, i64, i64, i64, i64, i64, i64, i64, i64, i64, i64, i64, i64, i64, i64, i64, i64, i64, i64, i64, i64, i64, i64, i64, ptr, ptr, ptr, i32, i32, i32, i32, i32, i32, i32, i32, i32, i32, i32, i32, i32, ptr, ptr, ptr, ptr, ptr, ptr, i32, i32, i32, i32, i32, i32, double, double, double, ptr, i32, ptr, ptr, double, double, double, ptr, ptr, ptr, double, double, i32, i32, i64, ptr, i32, i32, ptr, i32 }
%struct.IDAadjMemRec = type { double, double, i32, i32, double, ptr, i32, ptr, i32, ptr, ptr, i32, i64, ptr, i64, i32, ptr, ptr, ptr, ptr, i32, i32, i32, i32, i32, [6 x ptr], [6 x ptr], [6 x double], ptr, ptr, ptr, ptr, i64 }
%struct.IDABMemRec = type { i32, double, ptr, i32, i32, ptr, ptr, ptr, ptr, ptr, ptr, ptr, ptr, ptr, double, ptr, ptr, ptr }
%struct.IDADlsMemRecB = type { i32, ptr, ptr, ptr, ptr }

@.str = private unnamed_addr constant [8 x i8] c"IDASDLS\00", align 1
@.str.26 = private unnamed_addr constant [25 x i8] c"Bad t for interpolation.\00", align 1
@.str.27 = private unnamed_addr constant [24 x i8] c"idaDlsDenseJacBSWrapper\00", align 1

; Function Attrs: nounwind uwtable
define internal i32 @idaDlsDenseJacBSWrapper(i64 noundef %0, double noundef %1, double noundef %2, ptr noundef %3, ptr noundef %4, ptr noundef %5, ptr noundef %6, ptr noundef %7, ptr noundef %8, ptr noundef %9, ptr noundef %10) #0 {
  %12 = alloca i32, align 4
  %13 = alloca i64, align 8
  %14 = alloca double, align 8
  %15 = alloca double, align 8
  %16 = alloca ptr, align 8
  %17 = alloca ptr, align 8
  %18 = alloca ptr, align 8
  %19 = alloca ptr, align 8
  %20 = alloca ptr, align 8
  %21 = alloca ptr, align 8
  %22 = alloca ptr, align 8
  %23 = alloca ptr, align 8
  %24 = alloca ptr, align 8
  %25 = alloca ptr, align 8
  %26 = alloca ptr, align 8
  %27 = alloca ptr, align 8
  %28 = alloca i32, align 4
  %29 = alloca i32, align 4
  store i64 %0, ptr %13, align 8, !tbaa !31
  store double %1, ptr %14, align 8, !tbaa !39
  store double %2, ptr %15, align 8, !tbaa !39
  store ptr %3, ptr %16, align 8, !tbaa !40
  store ptr %4, ptr %17, align 8, !tbaa !40
  store ptr %5, ptr %18, align 8, !tbaa !40
  store ptr %6, ptr %19, align 8, !tbaa !41
  store ptr %7, ptr %20, align 8, !tbaa !3
  store ptr %8, ptr %21, align 8, !tbaa !40
  store ptr %9, ptr %22, align 8, !tbaa !40
  store ptr %10, ptr %23, align 8, !tbaa !40
  call void @llvm.lifetime.start.p0(i64 8, ptr %24) #6
  call void @llvm.lifetime.start.p0(i64 8, ptr %25) #6
  call void @llvm.lifetime.start.p0(i64 8, ptr %26) #6
  call void @llvm.lifetime.start.p0(i64 8, ptr %27) #6
  call void @llvm.lifetime.start.p0(i64 4, ptr %28) #6
  %30 = load ptr, ptr %20, align 8, !tbaa !3
  store ptr %30, ptr %25, align 8, !tbaa !7
  %31 = load ptr, ptr %25, align 8, !tbaa !7
  %32 = getelementptr inbounds nuw %struct.IDAMemRec, ptr %31, i32 0, i32 204
  %33 = load ptr, ptr %32, align 8, !tbaa !62
  store ptr %33, ptr %24, align 8, !tbaa !63
  %34 = load ptr, ptr %24, align 8, !tbaa !63
  %35 = getelementptr inbounds nuw %struct.IDAadjMemRec, ptr %34, i32 0, i32 7
  %36 = load ptr, ptr %35, align 8, !tbaa !81
  store ptr %36, ptr %26, align 8, !tbaa !70
  %37 = load ptr, ptr %26, align 8, !tbaa !70
  %38 = getelementptr inbounds nuw %struct.IDABMemRec, ptr %37, i32 0, i32 10
  %39 = load ptr, ptr %38, align 8, !tbaa !76
  store ptr %39, ptr %27, align 8, !tbaa !77
  %40 = load ptr, ptr %24, align 8, !tbaa !63
  %41 = getelementptr inbounds nuw %struct.IDAadjMemRec, ptr %40, i32 0, i32 24
  %42 = load i32, ptr %41, align 8, !tbaa !82
  %43 = icmp eq i32 %42, 0
  br i1 %43, label %44, label %89

44:                                               ; preds = %11
  %45 = load ptr, ptr %24, align 8, !tbaa !63
  %46 = getelementptr inbounds nuw %struct.IDAadjMemRec, ptr %45, i32 0, i32 23
  %47 = load i32, ptr %46, align 4, !tbaa !89
  %48 = icmp ne i32 %47, 0
  br i1 %48, label %49, label %68

49:                                               ; preds = %44
  %50 = load ptr, ptr %24, align 8, !tbaa !63
  %51 = getelementptr inbounds nuw %struct.IDAadjMemRec, ptr %50, i32 0, i32 17
  %52 = load ptr, ptr %51, align 8, !tbaa !83
  %53 = load ptr, ptr %25, align 8, !tbaa !7
  %54 = load double, ptr %14, align 8, !tbaa !39
  %55 = load ptr, ptr %24, align 8, !tbaa !63
  %56 = getelementptr inbounds nuw %struct.IDAadjMemRec, ptr %55, i32 0, i32 28
  %57 = load ptr, ptr %56, align 8, !tbaa !84
  %58 = load ptr, ptr %24, align 8, !tbaa !63
  %59 = getelementptr inbounds nuw %struct.IDAadjMemRec, ptr %58, i32 0, i32 29
  %60 = load ptr, ptr %59, align 8, !tbaa !85
  %61 = load ptr, ptr %24, align 8, !tbaa !63
  %62 = getelementptr inbounds nuw %struct.IDAadjMemRec, ptr %61, i32 0, i32 30
  %63 = load ptr, ptr %62, align 8, !tbaa !90
  %64 = load ptr, ptr %24, align 8, !tbaa !63
  %65 = getelementptr inbounds nuw %struct.IDAadjMemRec, ptr %64, i32 0, i32 31
  %66 = load ptr, ptr %65, align 8, !tbaa !91
  %67 = call i32 %52(ptr noundef %53, double noundef %54, ptr noundef %57, ptr noundef %60, ptr noundef %63, ptr noundef %66)
  store i32 %67, ptr %28, align 4, !tbaa !43
  br label %81

68:                                               ; preds = %44
  %69 = load ptr, ptr %24, align 8, !tbaa !63
  %70 = getelementptr inbounds nuw %struct.IDAadjMemRec, ptr %69, i32 0, i32 17
  %71 = load ptr, ptr %70, align 8, !tbaa !83
  %72 = load ptr, ptr %25, align 8, !tbaa !7
  %73 = load double, ptr %14, align 8, !tbaa !39
  %74 = load ptr, ptr %24, align 8, !tbaa !63
  %75 = getelementptr inbounds nuw %struct.IDAadjMemRec, ptr %74, i32 0, i32 28
  %76 = load ptr, ptr %75, align 8, !tbaa !84
  %77 = load ptr, ptr %24, align 8, !tbaa !63
  %78 = getelementptr inbounds nuw %struct.IDAadjMemRec, ptr %77, i32 0, i32 29
  %79 = load ptr, ptr %78, align 8, !tbaa !85
  %80 = call i32 %71(ptr noundef %72, double noundef %73, ptr noundef %76, ptr noundef %79, ptr noundef null, ptr noundef null)
  store i32 %80, ptr %28, align 4, !tbaa !43
  br label %81

81:                                               ; preds = %68, %49
  %82 = load i32, ptr %28, align 4, !tbaa !43
  %83 = icmp ne i32 %82, 0
  br i1 %83, label %84, label %88

84:                                               ; preds = %81
  %85 = load ptr, ptr %26, align 8, !tbaa !70
  %86 = getelementptr inbounds nuw %struct.IDABMemRec, ptr %85, i32 0, i32 2
  %87 = load ptr, ptr %86, align 8, !tbaa !75
  call void (ptr, i32, ptr, ptr, ptr, ...) @IDAProcessError(ptr noundef %87, i32 noundef -1, ptr noundef @.str, ptr noundef @.str.27, ptr noundef @.str.26)
  store i32 -1, ptr %12, align 4
  store i32 1, ptr %29, align 4
  br label %120

88:                                               ; preds = %81
  br label %89

89:                                               ; preds = %88, %11
  %90 = load ptr, ptr %27, align 8, !tbaa !77
  %91 = getelementptr inbounds nuw %struct.IDADlsMemRecB, ptr %90, i32 0, i32 2
  %92 = load ptr, ptr %91, align 8, !tbaa !88
  %93 = load i64, ptr %13, align 8, !tbaa !31
  %94 = load double, ptr %14, align 8, !tbaa !39
  %95 = load double, ptr %15, align 8, !tbaa !39
  %96 = load ptr, ptr %24, align 8, !tbaa !63
  %97 = getelementptr inbounds nuw %struct.IDAadjMemRec, ptr %96, i32 0, i32 28
  %98 = load ptr, ptr %97, align 8, !tbaa !84
  %99 = load ptr, ptr %24, align 8, !tbaa !63
  %100 = getelementptr inbounds nuw %struct.IDAadjMemRec, ptr %99, i32 0, i32 29
  %101 = load ptr, ptr %100, align 8, !tbaa !85
  %102 = load ptr, ptr %24, align 8, !tbaa !63
  %103 = getelementptr inbounds nuw %struct.IDAadjMemRec, ptr %102, i32 0, i32 30
  %104 = load ptr, ptr %103, align 8, !tbaa !90
  %105 = load ptr, ptr %24, align 8, !tbaa !63
  %106 = getelementptr inbounds nuw %struct.IDAadjMemRec, ptr %105, i32 0, i32 31
  %107 = load ptr, ptr %106, align 8, !tbaa !91
  %108 = load ptr, ptr %16, align 8, !tbaa !40
  %109 = load ptr, ptr %17, align 8, !tbaa !40
  %110 = load ptr, ptr %18, align 8, !tbaa !40
  %111 = load ptr, ptr %19, align 8, !tbaa !41
  %112 = load ptr, ptr %26, align 8, !tbaa !70
  %113 = getelementptr inbounds nuw %struct.IDABMemRec, ptr %112, i32 0, i32 9
  %114 = load ptr, ptr %113, align 8, !tbaa !86
  %115 = load ptr, ptr %21, align 8, !tbaa !40
  %116 = load ptr, ptr %22, align 8, !tbaa !40
  %117 = load ptr, ptr %23, align 8, !tbaa !40
  %118 = call i32 %92(i64 noundef %93, double noundef %94, double noundef %95, ptr noundef %98, ptr noundef %101, ptr noundef %104, ptr noundef %107, ptr noundef %108, ptr noundef %109, ptr noundef %110, ptr noundef %111, ptr noundef %114, ptr noundef %115, ptr noundef %116, ptr noundef %117)
  store i32 %118, ptr %28, align 4, !tbaa !43
  %119 = load i32, ptr %28, align 4, !tbaa !43
  store i32 %119, ptr %12, align 4
  store i32 1, ptr %29, align 4
  br label %120

120:                                              ; preds = %89, %84
  call void @llvm.lifetime.end.p0(i64 4, ptr %28) #6
  call void @llvm.lifetime.end.p0(i64 8, ptr %27) #6
  call void @llvm.lifetime.end.p0(i64 8, ptr %26) #6
  call void @llvm.lifetime.end.p0(i64 8, ptr %25) #6
  call void @llvm.lifetime.end.p0(i64 8, ptr %24) #6
  %121 = load i32, ptr %12, align 4
  ret i32 %121
}