; Function Attrs: nounwind uwtable
define internal i32 @idaDlsDenseJacBSWrapper(i64 noundef %0, double noundef %1, double noundef %2, ptr noundef %3, ptr noundef %4, ptr noundef %5, ptr noundef %6, ptr noundef %7, ptr noundef %8, ptr noundef %9, ptr noundef %10) #0 {
  %12 = getelementptr inbounds nuw i8, ptr %7, i64 1816
  %13 = load ptr, ptr %12, align 8, !tbaa !51
  %14 = getelementptr inbounds nuw i8, ptr %13, i64 48
  %15 = load ptr, ptr %14, align 8, !tbaa !66
  %16 = getelementptr inbounds nuw i8, ptr %15, i64 72
  %17 = load ptr, ptr %16, align 8, !tbaa !63
  %18 = getelementptr inbounds nuw i8, ptr %13, i64 168
  %19 = load i32, ptr %18, align 8, !tbaa !67
  %20 = icmp eq i32 %19, 0
  br i1 %20, label %21, label %42

21:                                               ; preds = %11
  %22 = getelementptr inbounds nuw i8, ptr %13, i64 164
  %23 = load i32, ptr %22, align 4, !tbaa !73
  %.not = icmp eq i32 %23, 0
  %24 = getelementptr inbounds nuw i8, ptr %13, i64 128
  %25 = load ptr, ptr %24, align 8, !tbaa !68
  %26 = getelementptr inbounds nuw i8, ptr %13, i64 320
  %27 = load ptr, ptr %26, align 8, !tbaa !69
  %28 = getelementptr inbounds nuw i8, ptr %13, i64 328
  %29 = load ptr, ptr %28, align 8, !tbaa !70
  br i1 %.not, label %36, label %30

30:                                               ; preds = %21
  %31 = getelementptr inbounds nuw i8, ptr %13, i64 336
  %32 = load ptr, ptr %31, align 8, !tbaa !74
  %33 = getelementptr inbounds nuw i8, ptr %13, i64 344
  %34 = load ptr, ptr %33, align 8, !tbaa !75
  %35 = tail call i32 %25(ptr noundef nonnull %7, double noundef %1, ptr noundef %27, ptr noundef %29, ptr noundef %32, ptr noundef %34) #7
  br label %38

36:                                               ; preds = %21
  %37 = tail call i32 %25(ptr noundef nonnull %7, double noundef %1, ptr noundef %27, ptr noundef %29, ptr noundef null, ptr noundef null) #7
  br label %38

38:                                               ; preds = %36, %30
  %.0 = phi i32 [ %35, %30 ], [ %37, %36 ]
  %.not38 = icmp eq i32 %.0, 0
  br i1 %.not38, label %42, label %39

39:                                               ; preds = %38
  %40 = getelementptr inbounds nuw i8, ptr %15, i64 16
  %41 = load ptr, ptr %40, align 8, !tbaa !62
  tail call void (ptr, i32, ptr, ptr, ptr, ...) @IDAProcessError(ptr noundef %41, i32 noundef -1, ptr noundef nonnull @.str, ptr noundef nonnull @.str.27, ptr noundef nonnull @.str.26) #7
  br label %56

42:                                               ; preds = %38, %11
  %43 = getelementptr inbounds nuw i8, ptr %17, i64 16
  %44 = load ptr, ptr %43, align 8, !tbaa !72
  %45 = getelementptr inbounds nuw i8, ptr %13, i64 320
  %46 = load ptr, ptr %45, align 8, !tbaa !69
  %47 = getelementptr inbounds nuw i8, ptr %13, i64 328
  %48 = load ptr, ptr %47, align 8, !tbaa !70
  %49 = getelementptr inbounds nuw i8, ptr %13, i64 336
  %50 = load ptr, ptr %49, align 8, !tbaa !74
  %51 = getelementptr inbounds nuw i8, ptr %13, i64 344
  %52 = load ptr, ptr %51, align 8, !tbaa !75
  %53 = getelementptr inbounds nuw i8, ptr %15, i64 64
  %54 = load ptr, ptr %53, align 8, !tbaa !71
  %55 = tail call i32 %44(i64 noundef %0, double noundef %1, double noundef %2, ptr noundef %46, ptr noundef %48, ptr noundef %50, ptr noundef %52, ptr noundef %3, ptr noundef %4, ptr noundef %5, ptr noundef %6, ptr noundef %54, ptr noundef %8, ptr noundef %9, ptr noundef %10) #7
  br label %56

56:                                               ; preds = %42, %39
  %.037 = phi i32 [ -1, %39 ], [ %55, %42 ]
  ret i32 %.037
}